; Function Attrs: mustprogress nounwind uwtable
define internal void @_ZNSt23_Sp_counted_ptr_inplaceIN12_GLOBAL__N_134ComplexDeinterleavingCompositeNodeESaIvELN9__gnu_cxx12_Lock_policyE2EE10_M_disposeEv(ptr noundef nonnull align 8 dereferenceable(128) %0) unnamed_addr #0 align 2 {
  %2 = getelementptr inbounds i8, ptr %0, i64 56
  %3 = tail call noundef i64 @_ZNK4llvm15SmallVectorBaseIjE4sizeEv(ptr noundef nonnull align 8 dereferenceable(16) %2) #20
  %4 = load ptr, ptr %2, align 8
  %5 = getelementptr inbounds i8, ptr %0, i64 72
  %6 = icmp eq ptr %4, %5
  br i1 %6, label %_ZNSt16allocator_traitsISaIvEE7destroyIN12_GLOBAL__N_134ComplexDeinterleavingCompositeNodeEEEvRS0_PT_.exit, label %7

7:                                                ; preds = %1
  tail call void @free(ptr noundef %4) #20
  br label %_ZNSt16allocator_traitsISaIvEE7destroyIN12_GLOBAL__N_134ComplexDeinterleavingCompositeNodeEEEvRS0_PT_.exit

_ZNSt16allocator_traitsISaIvEE7destroyIN12_GLOBAL__N_134ComplexDeinterleavingCompositeNodeEEEvRS0_PT_.exit: ; preds = %1, %7
  ret void
}